 0x000000000000000e (SONAME)             Library soname: [libpisp.so.1]
_ZGVZN15MediaEnumerator3GetEvE4mdev u
_ZN15MediaEnumeratorC1Ev W
_ZN15MediaEnumeratorC2Ev W
_ZN6tiling10BasicStage13SetDownstreamEPNS_5StageE T
_ZN6tiling10BasicStage5ResetEv T
_ZN6tiling10BasicStage7CopyOutEPvNS_3DirE T
_ZN6tiling10BasicStageC1EPKcPNS_8PipelineEPNS_5StageEi T
_ZN6tiling10BasicStageC2EPKcPNS_8PipelineEPNS_5StageEi T
_ZN6tiling10InputStage11PushEndDownEiNS_3DirE T
_ZN6tiling10InputStage11PushStartUpEiNS_3DirE T
_ZN6tiling10InputStage12PushCropDownENS_8IntervalENS_3DirE T
_ZN6tiling10InputStage9PushEndUpEiNS_3DirE T
_ZN6tiling10InputStageC1EPKcPNS_8PipelineERKNS0_6ConfigEi T
_ZN6tiling10InputStageC2EPKcPNS_8PipelineERKNS0_6ConfigEi T
_ZN6tiling10InputStageD0Ev W
_ZN6tiling10InputStageD1Ev W
_ZN6tiling10InputStageD2Ev W
_ZN6tiling10SplitStage11PushEndDownEiNS_3DirE T
_ZN6tiling10SplitStage11PushStartUpEiNS_3DirE T
_ZN6tiling10SplitStage12PushCropDownENS_8IntervalENS_3DirE T
_ZN6tiling10SplitStage13SetDownstreamEPNS_5StageE T
_ZN6tiling10SplitStage5ResetEv T
_ZN6tiling10SplitStage7CopyOutEPvNS_3DirE T
_ZN6tiling10SplitStage9PushEndUpEiNS_3DirE T
_ZN6tiling10SplitStageC1EPKcPNS_5StageE T
_ZN6tiling10SplitStageC2EPKcPNS_5StageE T
_ZN6tiling10SplitStageD0Ev W
_ZN6tiling10SplitStageD1Ev W
_ZN6tiling10SplitStageD2Ev W
_ZN6tiling11OutputStage11PushEndDownEiNS_3DirE T
_ZN6tiling11OutputStage11PushStartUpEiNS_3DirE T
_ZN6tiling11OutputStage12PushCropDownENS_8IntervalENS_3DirE T
_ZN6tiling11OutputStage17SetBranchCompleteEv T
_ZN6tiling11OutputStage5ResetEv T
_ZN6tiling11OutputStage9PushEndUpEiNS_3DirE T
_ZN6tiling11OutputStageC1EPKcPNS_5StageERKNS0_6ConfigEi T
_ZN6tiling11OutputStageC2EPKcPNS_5StageERKNS0_6ConfigEi T
_ZN6tiling11OutputStageD0Ev W
_ZN6tiling11OutputStageD1Ev W
_ZN6tiling11OutputStageD2Ev W
_ZN6tiling12ContextStage11PushEndDownEiNS_3DirE T
_ZN6tiling12ContextStage11PushStartUpEiNS_3DirE T
_ZN6tiling12ContextStage12PushCropDownENS_8IntervalENS_3DirE T
_ZN6tiling12ContextStage9PushEndUpEiNS_3DirE T
_ZN6tiling12ContextStageC1EPKcPNS_5StageERKNS0_6ConfigEi T
_ZN6tiling12ContextStageC2EPKcPNS_5StageERKNS0_6ConfigEi T
_ZN6tiling12ContextStageD0Ev W
_ZN6tiling12ContextStageD1Ev W
_ZN6tiling12ContextStageD2Ev W
_ZN6tiling12RescaleStage11PushEndDownEiNS_3DirE T
_ZN6tiling12RescaleStage11PushStartUpEiNS_3DirE T
_ZN6tiling12RescaleStage12PushCropDownENS_8IntervalENS_3DirE T
_ZN6tiling12RescaleStage9PushEndUpEiNS_3DirE T
_ZN6tiling12RescaleStageC1EPKcPNS_5StageERKNS0_6ConfigEi T
_ZN6tiling12RescaleStageC2EPKcPNS_5StageERKNS0_6ConfigEi T
_ZN6tiling12RescaleStageD0Ev W
_ZN6tiling12RescaleStageD1Ev W
_ZN6tiling12RescaleStageD2Ev W
_ZN6tiling15TilingExceptionD0Ev W
_ZN6tiling15TilingExceptionD1Ev W
_ZN6tiling15TilingExceptionD2Ev W
_ZN6tiling5StageC1EPKcPNS_8PipelineEi T
_ZN6tiling5StageC2EPKcPNS_8PipelineEi T
_ZN6tiling8Pipeline13AddInputStageEPNS_10InputStageE T
_ZN6tiling8Pipeline13tileDirectionENS_3DirEPvmm T
_ZN6tiling8Pipeline14AddOutputStageEPNS_11OutputStageE T
_ZN6tiling8Pipeline4TileEPvmmPNS_7Length2E T
_ZN6tiling8Pipeline5resetEv T
_ZN6tiling8Pipeline8AddStageEPNS_5StageE T
_ZN6tiling8PipelineC1EPKcRKNS0_6ConfigE T
_ZN6tiling8PipelineC2EPKcRKNS0_6ConfigE T
_ZN6tiling8PipelineD1Ev W
_ZN6tiling8PipelineD2Ev W
_ZN6tiling9CropStage11PushEndDownEiNS_3DirE T
_ZN6tiling9CropStage11PushStartUpEiNS_3DirE T
_ZN6tiling9CropStage12PushCropDownENS_8IntervalENS_3DirE T
_ZN6tiling9CropStage9PushEndUpEiNS_3DirE T
_ZN6tiling9CropStageC1EPKcPNS_5StageERKNS0_6ConfigEi T
_ZN6tiling9CropStageC2EPKcPNS_5StageERKNS0_6ConfigEi T
_ZN6tiling9CropStageD0Ev W
_ZN6tiling9CropStageD1Ev W
_ZN6tiling9CropStageD2Ev W
_ZN7libpisp10BCM2712_C0E B d8
_ZN7libpisp10BCM2712_D0E B d8
_ZN7libpisp10num_planesE17pisp_image_format T
_ZN7libpisp11get_variantEjj T
_ZN7libpisp11PiSPVariantD1Ev W
_ZN7libpisp11PiSPVariantD2Ev W
_ZN7libpisp12get_variantsEv T
_ZN7libpisp12logging_initEv T
_ZN7libpisp13tile_pipelineERKNS_12TilingConfigEPNS_4TileEiPN6tiling7Length2E T
_ZN7libpisp14compute_strideER24pisp_image_format_configb T
_ZN7libpisp14get_plane_sizeERK24pisp_image_format_configi T
_ZN7libpisp16compute_x_offsetEji T
_ZN7libpisp19compute_addr_offsetERK24pisp_image_format_configiiPjS3_ T
_ZN7libpisp20compute_stride_alignER24pisp_image_format_configib T
_ZN7libpisp21get_pisp_image_formatB5cxx11Ej T
_ZN7libpisp21get_pisp_image_formatERKNSt7__cxx1112basic_stringIcSt11char_traitsIcESaIcEEE T
_ZN7libpisp22compute_optimal_strideER24pisp_image_format_configb T
_ZN7libpisp3Pwl11MatchDomainERKNS0_8IntervalEbd T
_ZN7libpisp3Pwl4Map2ERKS0_S2_St8functionIFvdddEE T
_ZN7libpisp3Pwl4ReadERKN8nlohmann16json_abi_v3_11_210basic_jsonISt3mapSt6vectorNSt7__cxx1112basic_stringIcSt11char_traitsIcESaIcEEEblmdSaNS2_14adl_serializerES5_IhSaIhEEEE T
_ZN7libpisp3Pwl6AppendEddd T
_ZN7libpisp3Pwl7CombineERKS0_S2_St8functionIFddddEEd T
_ZN7libpisp3Pwl7PrependEddd T
_ZN7libpisp3PwlmLEd T
_ZN7libpisp7BackEnd10GetSharpenER22pisp_be_sharpen_config T
_ZN7libpisp7BackEnd10SetSharpenERK22pisp_be_sharpen_config T
_ZN7libpisp7BackEnd10SetTonemapERK22pisp_be_tonemap_config T
_ZN7libpisp7BackEnd11SetDemosaicERK23pisp_be_demosaic_config T
_ZN7libpisp7BackEnd11SetResampleEjRK22pisp_be_resample_extra T
_ZN7libpisp7BackEnd11SetResampleEjRK23pisp_be_resample_configRK22pisp_be_resample_extra T
_ZN7libpisp7BackEnd11updateTilesEv T
_ZN7libpisp7BackEnd12SetDownscaleEjRK23pisp_be_downscale_extra T
_ZN7libpisp7BackEnd12SetDownscaleEjRK24pisp_be_downscale_configRK23pisp_be_downscale_extra T
_ZN7libpisp7BackEnd13GetJsonConfigB5cxx11EP20pisp_be_tiles_config T
_ZN7libpisp7BackEnd13SetDecompressERK22pisp_decompress_config T
_ZN7libpisp7BackEnd13SetJsonConfigERKNSt7__cxx1112basic_stringIcSt11char_traitsIcESaIcEEE T
_ZN7libpisp7BackEnd13SetSatControlERK26pisp_be_sat_control_config T
_ZN7libpisp7BackEnd14finaliseConfigEv T
_ZN7libpisp7BackEnd14finaliseTilingEv T
_ZN7libpisp7BackEnd14retilePipelineERKNS_12TilingConfigE T
_ZN7libpisp7BackEnd14SetFalseColourERK27pisp_be_false_colour_config T
_ZN7libpisp7BackEnd14SetInputFormatERK24pisp_image_format_config T
_ZN7libpisp7BackEnd14SetShFcCombineERK28pisp_be_sh_fc_combine_config T
_ZN7libpisp7BackEnd14SetSmartResizeEjRKNS0_11SmartResizeE T
_ZN7libpisp7BackEnd14SetTdnCompressERK20pisp_compress_config T
_ZN7libpisp7BackEnd15InitialiseYcbcrER18pisp_be_ccm_configRKNSt7__cxx1112basic_stringIcSt11char_traitsIcESaIcEEE T
_ZN7libpisp7BackEnd15SetOutputFormatEjRK28pisp_be_output_format_config T
_ZN7libpisp7BackEnd15SetYcbcrInverseERK18pisp_be_ccm_config T
_ZN7libpisp7BackEnd16SetTdnDecompressERK22pisp_decompress_config T
_ZN7libpisp7BackEnd17InitialiseSharpenER22pisp_be_sharpen_configR28pisp_be_sh_fc_combine_config T
_ZN7libpisp7BackEnd17SetStitchCompressERK20pisp_compress_config T
_ZN7libpisp7BackEnd17SetTdnInputFormatERK24pisp_image_format_config T
_ZN7libpisp7BackEnd17updateSmartResizeEv T
_ZN7libpisp7BackEnd18InitialiseResampleER23pisp_be_resample_configd T
_ZN7libpisp7BackEnd18InitialiseResampleER23pisp_be_resample_configRKNSt7__cxx1112basic_stringIcSt11char_traitsIcESaIcEEE T
_ZN7libpisp7BackEnd18SetTdnOutputFormatERK24pisp_image_format_config T
_ZN7libpisp7BackEnd19SetStitchDecompressERK22pisp_decompress_config T
_ZN7libpisp7BackEnd20SetStitchInputFormatERK24pisp_image_format_config T
_ZN7libpisp7BackEnd21SetStitchOutputFormatERK24pisp_image_format_config T
_ZN7libpisp7BackEnd22InitialiseYcbcrInverseER18pisp_be_ccm_configRKNSt7__cxx1112basic_stringIcSt11char_traitsIcESaIcEEE T
_ZN7libpisp7BackEnd23initialiseDefaultConfigERKNSt7__cxx1112basic_stringIcSt11char_traitsIcESaIcEEE T
_ZN7libpisp7BackEnd6GetCscEjR18pisp_be_ccm_config T
_ZN7libpisp7BackEnd6GetWbgER15pisp_wbg_config T
_ZN7libpisp7BackEnd6SetBlcERK15pisp_bla_config T
_ZN7libpisp7BackEnd6SetCacERK18pisp_be_cac_config17pisp_be_cac_extra T
_ZN7libpisp7BackEnd6SetCcmERK18pisp_be_ccm_config T
_ZN7libpisp7BackEnd6SetCdnERK18pisp_be_cdn_config T
_ZN7libpisp7BackEnd6SetCscEjRK18pisp_be_ccm_config T
_ZN7libpisp7BackEnd6SetDpcERK18pisp_be_dpc_config T
_ZN7libpisp7BackEnd6SetGeqERK18pisp_be_geq_config T
_ZN7libpisp7BackEnd6SetLscERK18pisp_be_lsc_config17pisp_be_lsc_extra T
_ZN7libpisp7BackEnd6SetSdnERK18pisp_be_sdn_config T
_ZN7libpisp7BackEnd6SetTdnERK18pisp_be_tdn_config T
_ZN7libpisp7BackEnd6SetWbgERK15pisp_wbg_config T
_ZN7libpisp7BackEnd7PrepareEP20pisp_be_tiles_config T
_ZN7libpisp7BackEnd7SetCropEjRK19pisp_be_crop_config T
_ZN7libpisp7BackEnd7SetCropERK19pisp_be_crop_config T
_ZN7libpisp7BackEnd8GetDebinER20pisp_be_debin_config T
_ZN7libpisp7BackEnd8GetGammaER20pisp_be_gamma_config T
_ZN7libpisp7BackEnd8GetYcbcrER18pisp_be_ccm_config T
_ZN7libpisp7BackEnd8SetDebinERK20pisp_be_debin_config T
_ZN7libpisp7BackEnd8SetGammaERK20pisp_be_gamma_config T
_ZN7libpisp7BackEnd8SetYcbcrERK18pisp_be_ccm_config T
_ZN7libpisp7BackEnd9SetGlobalERK21pisp_be_global_config T
_ZN7libpisp7BackEnd9SetStitchERK21pisp_be_stitch_config T
_ZN7libpisp7BackEndC1ERKNS0_6ConfigERKNS_11PiSPVariantE T
_ZN7libpisp7BackEndC2ERKNS0_6ConfigERKNS_11PiSPVariantE T
_ZN7libpisp7BackEndD1Ev T
_ZN7libpisp7BackEndD2Ev T
_ZN7libpisp7helpers10V4l2Device11QueueBufferEj T
_ZN7libpisp7helpers10V4l2Device13DequeueBufferEj T
_ZN7libpisp7helpers10V4l2Device14ReleaseBuffersEv T
_ZN7libpisp7helpers10V4l2Device14RequestBuffersEj T
_ZN7libpisp7helpers10V4l2Device8StreamOnEv T
_ZN7libpisp7helpers10V4l2Device9GetBufferEv T
_ZN7libpisp7helpers10V4l2Device9SetFormatEjjjjRKNSt7__cxx1112basic_stringIcSt11char_traitsIcESaIcEEE T
_ZN7libpisp7helpers10V4l2Device9StreamOffEv T
_ZN7libpisp7helpers10V4l2DeviceC1ERKNSt7__cxx1112basic_stringIcSt11char_traitsIcESaIcEEE T
_ZN7libpisp7helpers10V4l2DeviceC2ERKNSt7__cxx1112basic_stringIcSt11char_traitsIcESaIcEEE T
_ZN7libpisp7helpers10V4l2DeviceD1Ev T
_ZN7libpisp7helpers10V4l2DeviceD2Ev T
_ZN7libpisp7helpers11MediaDevice14CloseV4l2NodesERSt3mapINSt7__cxx1112basic_stringIcSt11char_traitsIcESaIcEEENS0_10V4l2DeviceESt4lessIS8_ESaISt4pairIKS8_S9_EEE T
_ZN7libpisp7helpers11MediaDevice6unlockERKNSt7__cxx1112basic_stringIcSt11char_traitsIcESaIcEEE T
_ZN7libpisp7helpers11MediaDevice7AcquireERKNSt7__cxx1112basic_stringIcSt11char_traitsIcESaIcEEE T
_ZN7libpisp7helpers11MediaDevice7ReleaseERKNSt7__cxx1112basic_stringIcSt11char_traitsIcESaIcEEE T
_ZN7libpisp7helpers11MediaDeviceC1Ev T
_ZN7libpisp7helpers11MediaDeviceC2Ev T
_ZN7libpisp7helpers11MediaDeviceD1Ev T
_ZN7libpisp7helpers11MediaDeviceD2Ev T
_ZN7libpisp7helpers13BackendDevice3RunEv T
_ZN7libpisp7helpers13BackendDevice5SetupERK20pisp_be_tiles_config T
_ZN7libpisp7helpers13BackendDeviceC1ERKNSt7__cxx1112basic_stringIcSt11char_traitsIcESaIcEEE T
_ZN7libpisp7helpers13BackendDeviceC2ERKNSt7__cxx1112basic_stringIcSt11char_traitsIcESaIcEEE T
_ZN7libpisp7helpers13BackendDeviceD1Ev T
_ZN7libpisp7helpers13BackendDeviceD2Ev T
_ZN7libpisp7versionB5cxx11Ev T
_ZN7libpisp8FrontEnd11GetAgcStatsER24pisp_fe_agc_stats_config T
_ZN7libpisp8FrontEnd11GetAwbStatsER24pisp_fe_awb_stats_config T
_ZN7libpisp8FrontEnd11SetAgcStatsERK24pisp_fe_agc_stats_config T
_ZN7libpisp8FrontEnd11SetAwbStatsERK24pisp_fe_awb_stats_config T
_ZN7libpisp8FrontEnd11SetCompressEjRK20pisp_compress_config T
_ZN7libpisp8FrontEnd12GetCdafStatsER25pisp_fe_cdaf_stats_config T
_ZN7libpisp8FrontEnd12SetCdafStatsERK25pisp_fe_cdaf_stats_config T
_ZN7libpisp8FrontEnd12SetDecompandERK24pisp_fe_decompand_config T
_ZN7libpisp8FrontEnd12SetDownscaleEjRK24pisp_fe_downscale_config T
_ZN7libpisp8FrontEnd12SetStatsCropERK19pisp_fe_crop_config T
_ZN7libpisp8FrontEnd13fixOutputSizeEj T
_ZN7libpisp8FrontEnd13SetDecompressERK22pisp_decompress_config T
_ZN7libpisp8FrontEnd15SetOutputBufferEjRK28pisp_fe_output_buffer_config T
_ZN7libpisp8FrontEnd15SetOutputFormatEjRK24pisp_image_format_config T
_ZN7libpisp8FrontEnd16SetFloatingStatsERK29pisp_fe_floating_stats_config T
_ZN7libpisp8FrontEnd18SetOutputIntrLinesEji T
_ZN7libpisp8FrontEnd6SetBlaERK15pisp_bla_config T
_ZN7libpisp8FrontEnd6SetBlcERK15pisp_bla_config T
_ZN7libpisp8FrontEnd6SetDpcERK18pisp_fe_dpc_config T
_ZN7libpisp8FrontEnd6SetLscERK18pisp_fe_lsc_config T
_ZN7libpisp8FrontEnd7PrepareEP14pisp_fe_config T
_ZN7libpisp8FrontEnd7SetCropEjRK19pisp_fe_crop_config T
_ZN7libpisp8FrontEnd7SetRGBYERK19pisp_fe_rgby_config T
_ZN7libpisp8FrontEnd8SetInputERK20pisp_fe_input_config T
_ZN7libpisp8FrontEnd9SetGlobalERK21pisp_fe_global_config T
_ZN7libpisp8FrontEndC1EbRKNS_11PiSPVariantEi T
_ZN7libpisp8FrontEndC2EbRKNS_11PiSPVariantEi T
_ZN7libpisp8FrontEndD1Ev T
_ZN7libpisp8FrontEndD2Ev T
_ZN8nlohmann16json_abi_v3_11_210basic_jsonINS0_11ordered_mapESt6vectorNSt7__cxx1112basic_stringIcSt11char_traitsIcESaIcEEEblmdSaNS0_14adl_serializerES3_IhSaIhEEE10json_value7destroyENS0_6detail7value_tE W
_ZN8nlohmann16json_abi_v3_11_210basic_jsonINS0_11ordered_mapESt6vectorNSt7__cxx1112basic_stringIcSt11char_traitsIcESaIcEEEblmdSaNS0_14adl_serializerES3_IhSaIhEEE10json_valueC1ENS0_6detail7value_tE W
_ZN8nlohmann16json_abi_v3_11_210basic_jsonINS0_11ordered_mapESt6vectorNSt7__cxx1112basic_stringIcSt11char_traitsIcESaIcEEEblmdSaNS0_14adl_serializerES3_IhSaIhEEE10json_valueC2ENS0_6detail7value_tE W
_ZN8nlohmann16json_abi_v3_11_210basic_jsonINS0_11ordered_mapESt6vectorNSt7__cxx1112basic_stringIcSt11char_traitsIcESaIcEEEblmdSaNS0_14adl_serializerES3_IhSaIhEEE5eraseINS0_6detail9iter_implISD_EELi0EEET_SI_ W
_ZN8nlohmann16json_abi_v3_11_210basic_jsonINS0_11ordered_mapESt6vectorNSt7__cxx1112basic_stringIcSt11char_traitsIcESaIcEEEblmdSaNS0_14adl_serializerES3_IhSaIhEEEaSESD_ W
_ZN8nlohmann16json_abi_v3_11_210basic_jsonINS0_11ordered_mapESt6vectorNSt7__cxx1112basic_stringIcSt11char_traitsIcESaIcEEEblmdSaNS0_14adl_serializerES3_IhSaIhEEEC1EOSD_ W
_ZN8nlohmann16json_abi_v3_11_210basic_jsonINS0_11ordered_mapESt6vectorNSt7__cxx1112basic_stringIcSt11char_traitsIcESaIcEEEblmdSaNS0_14adl_serializerES3_IhSaIhEEEC1ERKSD_ W
_ZN8nlohmann16json_abi_v3_11_210basic_jsonINS0_11ordered_mapESt6vectorNSt7__cxx1112basic_stringIcSt11char_traitsIcESaIcEEEblmdSaNS0_14adl_serializerES3_IhSaIhEEEC1ESt16initializer_listINS0_6detail8json_refISD_EEEbNSF_7value_tE W
_ZN8nlohmann16json_abi_v3_11_210basic_jsonINS0_11ordered_mapESt6vectorNSt7__cxx1112basic_stringIcSt11char_traitsIcESaIcEEEblmdSaNS0_14adl_serializerES3_IhSaIhEEEC1IRddLi0EEEOT_ W
_ZN8nlohmann16json_abi_v3_11_210basic_jsonINS0_11ordered_mapESt6vectorNSt7__cxx1112basic_stringIcSt11char_traitsIcESaIcEEEblmdSaNS0_14adl_serializerES3_IhSaIhEEEC1IRllLi0EEEOT_ W
_ZN8nlohmann16json_abi_v3_11_210basic_jsonINS0_11ordered_mapESt6vectorNSt7__cxx1112basic_stringIcSt11char_traitsIcESaIcEEEblmdSaNS0_14adl_serializerES3_IhSaIhEEEC1IRmmLi0EEEOT_ W
_ZN8nlohmann16json_abi_v3_11_210basic_jsonINS0_11ordered_mapESt6vectorNSt7__cxx1112basic_stringIcSt11char_traitsIcESaIcEEEblmdSaNS0_14adl_serializerES3_IhSaIhEEEC2EOSD_ W
_ZN8nlohmann16json_abi_v3_11_210basic_jsonINS0_11ordered_mapESt6vectorNSt7__cxx1112basic_stringIcSt11char_traitsIcESaIcEEEblmdSaNS0_14adl_serializerES3_IhSaIhEEEC2ERKSD_ W
_ZN8nlohmann16json_abi_v3_11_210basic_jsonINS0_11ordered_mapESt6vectorNSt7__cxx1112basic_stringIcSt11char_traitsIcESaIcEEEblmdSaNS0_14adl_serializerES3_IhSaIhEEEC2ESt16initializer_listINS0_6detail8json_refISD_EEEbNSF_7value_tE W
_ZN8nlohmann16json_abi_v3_11_210basic_jsonINS0_11ordered_mapESt6vectorNSt7__cxx1112basic_stringIcSt11char_traitsIcESaIcEEEblmdSaNS0_14adl_serializerES3_IhSaIhEEEC2IRddLi0EEEOT_ W
_ZN8nlohmann16json_abi_v3_11_210basic_jsonINS0_11ordered_mapESt6vectorNSt7__cxx1112basic_stringIcSt11char_traitsIcESaIcEEEblmdSaNS0_14adl_serializerES3_IhSaIhEEEC2IRllLi0EEEOT_ W
_ZN8nlohmann16json_abi_v3_11_210basic_jsonINS0_11ordered_mapESt6vectorNSt7__cxx1112basic_stringIcSt11char_traitsIcESaIcEEEblmdSaNS0_14adl_serializerES3_IhSaIhEEEC2IRmmLi0EEEOT_ W
_ZN8nlohmann16json_abi_v3_11_210basic_jsonINS0_11ordered_mapESt6vectorNSt7__cxx1112basic_stringIcSt11char_traitsIcESaIcEEEblmdSaNS0_14adl_serializerES3_IhSaIhEEED1Ev W
_ZN8nlohmann16json_abi_v3_11_210basic_jsonINS0_11ordered_mapESt6vectorNSt7__cxx1112basic_stringIcSt11char_traitsIcESaIcEEEblmdSaNS0_14adl_serializerES3_IhSaIhEEED2Ev W
_ZN8nlohmann16json_abi_v3_11_210basic_jsonINS0_11ordered_mapESt6vectorNSt7__cxx1112basic_stringIcSt11char_traitsIcESaIcEEEblmdSaNS0_14adl_serializerES3_IhSaIhEEEixES9_ W
_ZN8nlohmann16json_abi_v3_11_210basic_jsonISt3mapSt6vectorNSt7__cxx1112basic_stringIcSt11char_traitsIcESaIcEEEblmdSaNS0_14adl_serializerES3_IhSaIhEEE10json_value7destroyENS0_6detail7value_tE W
_ZN8nlohmann16json_abi_v3_11_210basic_jsonISt3mapSt6vectorNSt7__cxx1112basic_stringIcSt11char_traitsIcESaIcEEEblmdSaNS0_14adl_serializerES3_IhSaIhEEE10json_valueC1ENS0_6detail7value_tE W
_ZN8nlohmann16json_abi_v3_11_210basic_jsonISt3mapSt6vectorNSt7__cxx1112basic_stringIcSt11char_traitsIcESaIcEEEblmdSaNS0_14adl_serializerES3_IhSaIhEEE10json_valueC2ENS0_6detail7value_tE W
_ZN8nlohmann16json_abi_v3_11_210basic_jsonISt3mapSt6vectorNSt7__cxx1112basic_stringIcSt11char_traitsIcESaIcEEEblmdSaNS0_14adl_serializerES3_IhSaIhEEE5eraseINS0_6detail9iter_implISD_EELi0EEET_SI_ W
_ZN8nlohmann16json_abi_v3_11_210basic_jsonISt3mapSt6vectorNSt7__cxx1112basic_stringIcSt11char_traitsIcESaIcEEEblmdSaNS0_14adl_serializerES3_IhSaIhEEEaSESD_ W
_ZN8nlohmann16json_abi_v3_11_210basic_jsonISt3mapSt6vectorNSt7__cxx1112basic_stringIcSt11char_traitsIcESaIcEEEblmdSaNS0_14adl_serializerES3_IhSaIhEEEC1EOSD_ W
_ZN8nlohmann16json_abi_v3_11_210basic_jsonISt3mapSt6vectorNSt7__cxx1112basic_stringIcSt11char_traitsIcESaIcEEEblmdSaNS0_14adl_serializerES3_IhSaIhEEEC1ERKSD_ W
_ZN8nlohmann16json_abi_v3_11_210basic_jsonISt3mapSt6vectorNSt7__cxx1112basic_stringIcSt11char_traitsIcESaIcEEEblmdSaNS0_14adl_serializerES3_IhSaIhEEEC1IRddLi0EEEOT_ W
_ZN8nlohmann16json_abi_v3_11_210basic_jsonISt3mapSt6vectorNSt7__cxx1112basic_stringIcSt11char_traitsIcESaIcEEEblmdSaNS0_14adl_serializerES3_IhSaIhEEEC1IRllLi0EEEOT_ W
_ZN8nlohmann16json_abi_v3_11_210basic_jsonISt3mapSt6vectorNSt7__cxx1112basic_stringIcSt11char_traitsIcESaIcEEEblmdSaNS0_14adl_serializerES3_IhSaIhEEEC1IRmmLi0EEEOT_ W
_ZN8nlohmann16json_abi_v3_11_210basic_jsonISt3mapSt6vectorNSt7__cxx1112basic_stringIcSt11char_traitsIcESaIcEEEblmdSaNS0_14adl_serializerES3_IhSaIhEEEC2EOSD_ W
_ZN8nlohmann16json_abi_v3_11_210basic_jsonISt3mapSt6vectorNSt7__cxx1112basic_stringIcSt11char_traitsIcESaIcEEEblmdSaNS0_14adl_serializerES3_IhSaIhEEEC2ERKSD_ W
_ZN8nlohmann16json_abi_v3_11_210basic_jsonISt3mapSt6vectorNSt7__cxx1112basic_stringIcSt11char_traitsIcESaIcEEEblmdSaNS0_14adl_serializerES3_IhSaIhEEEC2IRddLi0EEEOT_ W
_ZN8nlohmann16json_abi_v3_11_210basic_jsonISt3mapSt6vectorNSt7__cxx1112basic_stringIcSt11char_traitsIcESaIcEEEblmdSaNS0_14adl_serializerES3_IhSaIhEEEC2IRllLi0EEEOT_ W
_ZN8nlohmann16json_abi_v3_11_210basic_jsonISt3mapSt6vectorNSt7__cxx1112basic_stringIcSt11char_traitsIcESaIcEEEblmdSaNS0_14adl_serializerES3_IhSaIhEEEC2IRmmLi0EEEOT_ W
_ZN8nlohmann16json_abi_v3_11_210basic_jsonISt3mapSt6vectorNSt7__cxx1112basic_stringIcSt11char_traitsIcESaIcEEEblmdSaNS0_14adl_serializerES3_IhSaIhEEED1Ev W
_ZN8nlohmann16json_abi_v3_11_210basic_jsonISt3mapSt6vectorNSt7__cxx1112basic_stringIcSt11char_traitsIcESaIcEEEblmdSaNS0_14adl_serializerES3_IhSaIhEEED2Ev W
_ZN8nlohmann16json_abi_v3_11_210basic_jsonISt3mapSt6vectorNSt7__cxx1112basic_stringIcSt11char_traitsIcESaIcEEEblmdSaNS0_14adl_serializerES3_IhSaIhEEEixES9_ W
_ZN8nlohmann16json_abi_v3_11_210basic_jsonISt3mapSt6vectorNSt7__cxx1112basic_stringIcSt11char_traitsIcESaIcEEEblmdSaNS0_14adl_serializerES3_IhSaIhEEEixIKcEERSD_PT_ W
_ZN8nlohmann16json_abi_v3_11_26detail10serializerINS0_10basic_jsonINS0_11ordered_mapESt6vectorNSt7__cxx1112basic_stringIcSt11char_traitsIcESaIcEEEblmdSaNS0_14adl_serializerES5_IhSaIhEEEEE12dump_escapedERKSB_b W
_ZN8nlohmann16json_abi_v3_11_26detail10serializerINS0_10basic_jsonINS0_11ordered_mapESt6vectorNSt7__cxx1112basic_stringIcSt11char_traitsIcESaIcEEEblmdSaNS0_14adl_serializerES5_IhSaIhEEEEE12dump_integerIhLi0EEEvT_ W
_ZN8nlohmann16json_abi_v3_11_26detail10serializerINS0_10basic_jsonINS0_11ordered_mapESt6vectorNSt7__cxx1112basic_stringIcSt11char_traitsIcESaIcEEEblmdSaNS0_14adl_serializerES5_IhSaIhEEEEE12dump_integerImLi0EEEvT_ W
_ZN8nlohmann16json_abi_v3_11_26detail10serializerINS0_10basic_jsonINS0_11ordered_mapESt6vectorNSt7__cxx1112basic_stringIcSt11char_traitsIcESaIcEEEblmdSaNS0_14adl_serializerES5_IhSaIhEEEEE4dumpERKSF_bbjj W
_ZN8nlohmann16json_abi_v3_11_26detail10serializerINS0_10basic_jsonINS0_11ordered_mapESt6vectorNSt7__cxx1112basic_stringIcSt11char_traitsIcESaIcEEEblmdSaNS0_14adl_serializerES5_IhSaIhEEEEE9hex_bytesEh W
_ZN8nlohmann16json_abi_v3_11_26detail10serializerINS0_10basic_jsonINS0_11ordered_mapESt6vectorNSt7__cxx1112basic_stringIcSt11char_traitsIcESaIcEEEblmdSaNS0_14adl_serializerES5_IhSaIhEEEEED1Ev W
_ZN8nlohmann16json_abi_v3_11_26detail10serializerINS0_10basic_jsonINS0_11ordered_mapESt6vectorNSt7__cxx1112basic_stringIcSt11char_traitsIcESaIcEEEblmdSaNS0_14adl_serializerES5_IhSaIhEEEEED2Ev W
_ZN8nlohmann16json_abi_v3_11_26detail10type_errorC1EiPKc W
_ZN8nlohmann16json_abi_v3_11_26detail10type_errorC2EiPKc W
_ZN8nlohmann16json_abi_v3_11_26detail10type_errorD0Ev W
_ZN8nlohmann16json_abi_v3_11_26detail10type_errorD1Ev W
_ZN8nlohmann16json_abi_v3_11_26detail10type_errorD2Ev W
_ZN8nlohmann16json_abi_v3_11_26detail11parse_errorD0Ev W
_ZN8nlohmann16json_abi_v3_11_26detail11parse_errorD1Ev W
_ZN8nlohmann16json_abi_v3_11_26detail11parse_errorD2Ev W
_ZN8nlohmann16json_abi_v3_11_26detail12out_of_rangeD0Ev W
_ZN8nlohmann16json_abi_v3_11_26detail12out_of_rangeD1Ev W
_ZN8nlohmann16json_abi_v3_11_26detail12out_of_rangeD2Ev W
_ZN8nlohmann16json_abi_v3_11_26detail16invalid_iteratorD0Ev W
_ZN8nlohmann16json_abi_v3_11_26detail16invalid_iteratorD1Ev W
_ZN8nlohmann16json_abi_v3_11_26detail16invalid_iteratorD2Ev W
_ZN8nlohmann16json_abi_v3_11_26detail19json_sax_dom_parserINS0_10basic_jsonINS0_11ordered_mapESt6vectorNSt7__cxx1112basic_stringIcSt11char_traitsIcESaIcEEEblmdSaNS0_14adl_serializerES5_IhSaIhEEEEE12handle_valueINS1_7value_tEEEPSF_OT_ W
_ZN8nlohmann16json_abi_v3_11_26detail19json_sax_dom_parserINS0_10basic_jsonINS0_11ordered_mapESt6vectorNSt7__cxx1112basic_stringIcSt11char_traitsIcESaIcEEEblmdSaNS0_14adl_serializerES5_IhSaIhEEEEE3keyERSB_ W
_ZN8nlohmann16json_abi_v3_11_26detail19json_sax_dom_parserINS0_10basic_jsonISt3mapSt6vectorNSt7__cxx1112basic_stringIcSt11char_traitsIcESaIcEEEblmdSaNS0_14adl_serializerES5_IhSaIhEEEEE12handle_valueINS1_7value_tEEEPSF_OT_ W
_ZN8nlohmann16json_abi_v3_11_26detail19json_sax_dom_parserINS0_10basic_jsonISt3mapSt6vectorNSt7__cxx1112basic_stringIcSt11char_traitsIcESaIcEEEblmdSaNS0_14adl_serializerES5_IhSaIhEEEEE3keyERSB_ W
_ZN8nlohmann16json_abi_v3_11_26detail20external_constructorILNS1_7value_tE3EE9constructINS0_10basic_jsonINS0_11ordered_mapESt6vectorNSt7__cxx1112basic_stringIcSt11char_traitsIcESaIcEEEblmdSaNS0_14adl_serializerES8_IhSaIhEEEEEEvRT_RKNSJ_8string_tE W
_ZN8nlohmann16json_abi_v3_11_26detail20external_constructorILNS1_7value_tE3EE9constructINS0_10basic_jsonISt3mapSt6vectorNSt7__cxx1112basic_stringIcSt11char_traitsIcESaIcEEEblmdSaNS0_14adl_serializerES8_IhSaIhEEEEEEvRT_RKNSJ_8string_tE W
_ZN8nlohmann16json_abi_v3_11_26detail20get_arithmetic_valueINS0_10basic_jsonISt3mapSt6vectorNSt7__cxx1112basic_stringIcSt11char_traitsIcESaIcEEEblmdSaNS0_14adl_serializerES5_IhSaIhEEEEdLi0EEEvRKT_RT0_ W
_ZN8nlohmann16json_abi_v3_11_26detail21output_string_adapterIcNSt7__cxx1112basic_stringIcSt11char_traitsIcESaIcEEEE15write_characterEc W
_ZN8nlohmann16json_abi_v3_11_26detail21output_string_adapterIcNSt7__cxx1112basic_stringIcSt11char_traitsIcESaIcEEEE16write_charactersEPKcm W
_ZN8nlohmann16json_abi_v3_11_26detail21output_string_adapterIcNSt7__cxx1112basic_stringIcSt11char_traitsIcESaIcEEEED0Ev W
_ZN8nlohmann16json_abi_v3_11_26detail21output_string_adapterIcNSt7__cxx1112basic_stringIcSt11char_traitsIcESaIcEEEED1Ev W
_ZN8nlohmann16json_abi_v3_11_26detail21output_string_adapterIcNSt7__cxx1112basic_stringIcSt11char_traitsIcESaIcEEEED2Ev W
_ZN8nlohmann16json_abi_v3_11_26detail28json_sax_dom_callback_parserINS0_10basic_jsonINS0_11ordered_mapESt6vectorNSt7__cxx1112basic_stringIcSt11char_traitsIcESaIcEEEblmdSaNS0_14adl_serializerES5_IhSaIhEEEEE10end_objectEv W
_ZN8nlohmann16json_abi_v3_11_26detail28json_sax_dom_callback_parserINS0_10basic_jsonINS0_11ordered_mapESt6vectorNSt7__cxx1112basic_stringIcSt11char_traitsIcESaIcEEEblmdSaNS0_14adl_serializerES5_IhSaIhEEEEE12handle_valueINS1_7value_tEEESt4pairIbPSF_EOT_b W
_ZN8nlohmann16json_abi_v3_11_26detail28json_sax_dom_callback_parserINS0_10basic_jsonINS0_11ordered_mapESt6vectorNSt7__cxx1112basic_stringIcSt11char_traitsIcESaIcEEEblmdSaNS0_14adl_serializerES5_IhSaIhEEEEE3keyERSB_ W
_ZN8nlohmann16json_abi_v3_11_26detail28json_sax_dom_callback_parserINS0_10basic_jsonINS0_11ordered_mapESt6vectorNSt7__cxx1112basic_stringIcSt11char_traitsIcESaIcEEEblmdSaNS0_14adl_serializerES5_IhSaIhEEEEE9end_arrayEv W
_ZN8nlohmann16json_abi_v3_11_26detail28json_sax_dom_callback_parserINS0_10basic_jsonINS0_11ordered_mapESt6vectorNSt7__cxx1112basic_stringIcSt11char_traitsIcESaIcEEEblmdSaNS0_14adl_serializerES5_IhSaIhEEEEED1Ev W
_ZN8nlohmann16json_abi_v3_11_26detail28json_sax_dom_callback_parserINS0_10basic_jsonINS0_11ordered_mapESt6vectorNSt7__cxx1112basic_stringIcSt11char_traitsIcESaIcEEEblmdSaNS0_14adl_serializerES5_IhSaIhEEEEED2Ev W
_ZN8nlohmann16json_abi_v3_11_26detail28json_sax_dom_callback_parserINS0_10basic_jsonISt3mapSt6vectorNSt7__cxx1112basic_stringIcSt11char_traitsIcESaIcEEEblmdSaNS0_14adl_serializerES5_IhSaIhEEEEE10end_objectEv W
_ZN8nlohmann16json_abi_v3_11_26detail28json_sax_dom_callback_parserINS0_10basic_jsonISt3mapSt6vectorNSt7__cxx1112basic_stringIcSt11char_traitsIcESaIcEEEblmdSaNS0_14adl_serializerES5_IhSaIhEEEEE12handle_valueINS1_7value_tEEESt4pairIbPSF_EOT_b W
_ZN8nlohmann16json_abi_v3_11_26detail28json_sax_dom_callback_parserINS0_10basic_jsonISt3mapSt6vectorNSt7__cxx1112basic_stringIcSt11char_traitsIcESaIcEEEblmdSaNS0_14adl_serializerES5_IhSaIhEEEEE3keyERSB_ W
_ZN8nlohmann16json_abi_v3_11_26detail28json_sax_dom_callback_parserINS0_10basic_jsonISt3mapSt6vectorNSt7__cxx1112basic_stringIcSt11char_traitsIcESaIcEEEblmdSaNS0_14adl_serializerES5_IhSaIhEEEEE9end_arrayEv W
_ZN8nlohmann16json_abi_v3_11_26detail28json_sax_dom_callback_parserINS0_10basic_jsonISt3mapSt6vectorNSt7__cxx1112basic_stringIcSt11char_traitsIcESaIcEEEblmdSaNS0_14adl_serializerES5_IhSaIhEEEEED1Ev W
_ZN8nlohmann16json_abi_v3_11_26detail28json_sax_dom_callback_parserINS0_10basic_jsonISt3mapSt6vectorNSt7__cxx1112basic_stringIcSt11char_traitsIcESaIcEEEblmdSaNS0_14adl_serializerES5_IhSaIhEEEEED2Ev W
_ZN8nlohmann16json_abi_v3_11_26detail5lexerINS0_10basic_jsonINS0_11ordered_mapESt6vectorNSt7__cxx1112basic_stringIcSt11char_traitsIcESaIcEEEblmdSaNS0_14adl_serializerES5_IhSaIhEEEENS1_22iterator_input_adapterIN9__gnu_cxx17__normal_iteratorIPKcSB_EEEEE11scan_numberEv W
_ZN8nlohmann16json_abi_v3_11_26detail5lexerINS0_10basic_jsonINS0_11ordered_mapESt6vectorNSt7__cxx1112basic_stringIcSt11char_traitsIcESaIcEEEblmdSaNS0_14adl_serializerES5_IhSaIhEEEENS1_22iterator_input_adapterIN9__gnu_cxx17__normal_iteratorIPKcSB_EEEEE11scan_stringEv W
_ZN8nlohmann16json_abi_v3_11_26detail5lexerINS0_10basic_jsonINS0_11ordered_mapESt6vectorNSt7__cxx1112basic_stringIcSt11char_traitsIcESaIcEEEblmdSaNS0_14adl_serializerES5_IhSaIhEEEENS1_22iterator_input_adapterIN9__gnu_cxx17__normal_iteratorIPKcSB_EEEEE13get_codepointEv W
_ZN8nlohmann16json_abi_v3_11_26detail5lexerINS0_10basic_jsonINS0_11ordered_mapESt6vectorNSt7__cxx1112basic_stringIcSt11char_traitsIcESaIcEEEblmdSaNS0_14adl_serializerES5_IhSaIhEEEENS1_22iterator_input_adapterIN9__gnu_cxx17__normal_iteratorIPKcSB_EEEEE18next_byte_in_rangeESt16initializer_listIiE W
_ZN8nlohmann16json_abi_v3_11_26detail5lexerINS0_10basic_jsonINS0_11ordered_mapESt6vectorNSt7__cxx1112basic_stringIcSt11char_traitsIcESaIcEEEblmdSaNS0_14adl_serializerES5_IhSaIhEEEENS1_22iterator_input_adapterIN9__gnu_cxx17__normal_iteratorIPKcSB_EEEEE3getEv W
_ZN8nlohmann16json_abi_v3_11_26detail5lexerINS0_10basic_jsonINS0_11ordered_mapESt6vectorNSt7__cxx1112basic_stringIcSt11char_traitsIcESaIcEEEblmdSaNS0_14adl_serializerES5_IhSaIhEEEENS1_22iterator_input_adapterIN9__gnu_cxx17__normal_iteratorIPKcSB_EEEEE4scanEv W
_ZN8nlohmann16json_abi_v3_11_26detail5lexerINS0_10basic_jsonISt3mapSt6vectorNSt7__cxx1112basic_stringIcSt11char_traitsIcESaIcEEEblmdSaNS0_14adl_serializerES5_IhSaIhEEEENS1_20input_stream_adapterEE11scan_numberEv W
_ZN8nlohmann16json_abi_v3_11_26detail5lexerINS0_10basic_jsonISt3mapSt6vectorNSt7__cxx1112basic_stringIcSt11char_traitsIcESaIcEEEblmdSaNS0_14adl_serializerES5_IhSaIhEEEENS1_20input_stream_adapterEE11scan_stringEv W
_ZN8nlohmann16json_abi_v3_11_26detail5lexerINS0_10basic_jsonISt3mapSt6vectorNSt7__cxx1112basic_stringIcSt11char_traitsIcESaIcEEEblmdSaNS0_14adl_serializerES5_IhSaIhEEEENS1_20input_stream_adapterEE13get_codepointEv W
_ZN8nlohmann16json_abi_v3_11_26detail5lexerINS0_10basic_jsonISt3mapSt6vectorNSt7__cxx1112basic_stringIcSt11char_traitsIcESaIcEEEblmdSaNS0_14adl_serializerES5_IhSaIhEEEENS1_20input_stream_adapterEE18next_byte_in_rangeESt16initializer_listIiE W
_ZN8nlohmann16json_abi_v3_11_26detail5lexerINS0_10basic_jsonISt3mapSt6vectorNSt7__cxx1112basic_stringIcSt11char_traitsIcESaIcEEEblmdSaNS0_14adl_serializerES5_IhSaIhEEEENS1_20input_stream_adapterEE3getEv W
_ZN8nlohmann16json_abi_v3_11_26detail5lexerINS0_10basic_jsonISt3mapSt6vectorNSt7__cxx1112basic_stringIcSt11char_traitsIcESaIcEEEblmdSaNS0_14adl_serializerES5_IhSaIhEEEENS1_20input_stream_adapterEE4scanEv W
_ZN8nlohmann16json_abi_v3_11_26detail5lexerINS0_10basic_jsonISt3mapSt6vectorNSt7__cxx1112basic_stringIcSt11char_traitsIcESaIcEEEblmdSaNS0_14adl_serializerES5_IhSaIhEEEENS1_20input_stream_adapterEED1Ev W
_ZN8nlohmann16json_abi_v3_11_26detail5lexerINS0_10basic_jsonISt3mapSt6vectorNSt7__cxx1112basic_stringIcSt11char_traitsIcESaIcEEEblmdSaNS0_14adl_serializerES5_IhSaIhEEEENS1_20input_stream_adapterEED2Ev W
_ZN8nlohmann16json_abi_v3_11_26detail6concatINSt7__cxx1112basic_stringIcSt11char_traitsIcESaIcEEEJRA23_KcS8_EEET_DpOT0_ W
_ZN8nlohmann16json_abi_v3_11_26detail6concatINSt7__cxx1112basic_stringIcSt11char_traitsIcESaIcEEEJRA24_KcS8_EEET_DpOT0_ W
_ZN8nlohmann16json_abi_v3_11_26detail6concatINSt7__cxx1112basic_stringIcSt11char_traitsIcESaIcEEEJRA26_KcS8_cEEET_DpOT0_ W
_ZN8nlohmann16json_abi_v3_11_26detail6concatINSt7__cxx1112basic_stringIcSt11char_traitsIcESaIcEEEJRA28_KcPS9_EEET_DpOT0_ W
_ZN8nlohmann16json_abi_v3_11_26detail6concatINSt7__cxx1112basic_stringIcSt11char_traitsIcESaIcEEEJRA29_KcPS9_EEET_DpOT0_ W
_ZN8nlohmann16json_abi_v3_11_26detail6concatINSt7__cxx1112basic_stringIcSt11char_traitsIcESaIcEEEJRA51_KcPS9_EEET_DpOT0_ W
_ZN8nlohmann16json_abi_v3_11_26detail6concatINSt7__cxx1112basic_stringIcSt11char_traitsIcESaIcEEEJS8_S8_RKS8_EEET_DpOT0_ W
_ZN8nlohmann16json_abi_v3_11_26detail6parserINS0_10basic_jsonINS0_11ordered_mapESt6vectorNSt7__cxx1112basic_stringIcSt11char_traitsIcESaIcEEEblmdSaNS0_14adl_serializerES5_IhSaIhEEEENS1_22iterator_input_adapterIN9__gnu_cxx17__normal_iteratorIPKcSB_EEEEE17exception_messageENS1_10lexer_baseISF_E10token_typeERKSB_ W
_ZN8nlohmann16json_abi_v3_11_26detail6parserINS0_10basic_jsonINS0_11ordered_mapESt6vectorNSt7__cxx1112basic_stringIcSt11char_traitsIcESaIcEEEblmdSaNS0_14adl_serializerES5_IhSaIhEEEENS1_22iterator_input_adapterIN9__gnu_cxx17__normal_iteratorIPKcSB_EEEEE18sax_parse_internalINS1_19json_sax_dom_parserISF_EEEEbPT_ W
_ZN8nlohmann16json_abi_v3_11_26detail6parserINS0_10basic_jsonINS0_11ordered_mapESt6vectorNSt7__cxx1112basic_stringIcSt11char_traitsIcESaIcEEEblmdSaNS0_14adl_serializerES5_IhSaIhEEEENS1_22iterator_input_adapterIN9__gnu_cxx17__normal_iteratorIPKcSB_EEEEE18sax_parse_internalINS1_28json_sax_dom_callback_parserISF_EEEEbPT_ W
_ZN8nlohmann16json_abi_v3_11_26detail6parserINS0_10basic_jsonINS0_11ordered_mapESt6vectorNSt7__cxx1112basic_stringIcSt11char_traitsIcESaIcEEEblmdSaNS0_14adl_serializerES5_IhSaIhEEEENS1_22iterator_input_adapterIN9__gnu_cxx17__normal_iteratorIPKcSB_EEEEE5parseEbRSF_ W
_ZN8nlohmann16json_abi_v3_11_26detail6parserINS0_10basic_jsonISt3mapSt6vectorNSt7__cxx1112basic_stringIcSt11char_traitsIcESaIcEEEblmdSaNS0_14adl_serializerES5_IhSaIhEEEENS1_20input_stream_adapterEE17exception_messageENS1_10lexer_baseISF_E10token_typeERKSB_ W
_ZN8nlohmann16json_abi_v3_11_26detail6parserINS0_10basic_jsonISt3mapSt6vectorNSt7__cxx1112basic_stringIcSt11char_traitsIcESaIcEEEblmdSaNS0_14adl_serializerES5_IhSaIhEEEENS1_20input_stream_adapterEE18sax_parse_internalINS1_19json_sax_dom_parserISF_EEEEbPT_ W
_ZN8nlohmann16json_abi_v3_11_26detail6parserINS0_10basic_jsonISt3mapSt6vectorNSt7__cxx1112basic_stringIcSt11char_traitsIcESaIcEEEblmdSaNS0_14adl_serializerES5_IhSaIhEEEENS1_20input_stream_adapterEE18sax_parse_internalINS1_28json_sax_dom_callback_parserISF_EEEEbPT_ W
_ZN8nlohmann16json_abi_v3_11_26detail6parserINS0_10basic_jsonISt3mapSt6vectorNSt7__cxx1112basic_stringIcSt11char_traitsIcESaIcEEEblmdSaNS0_14adl_serializerES5_IhSaIhEEEENS1_20input_stream_adapterEE5parseEbRSF_ W
_ZN8nlohmann16json_abi_v3_11_26detail6parserINS0_10basic_jsonISt3mapSt6vectorNSt7__cxx1112basic_stringIcSt11char_traitsIcESaIcEEEblmdSaNS0_14adl_serializerES5_IhSaIhEEEENS1_20input_stream_adapterEED1Ev W
_ZN8nlohmann16json_abi_v3_11_26detail6parserINS0_10basic_jsonISt3mapSt6vectorNSt7__cxx1112basic_stringIcSt11char_traitsIcESaIcEEEblmdSaNS0_14adl_serializerES5_IhSaIhEEEENS1_20input_stream_adapterEED2Ev W
_ZN8nlohmann16json_abi_v3_11_26detail8to_charsIdEEPcS3_PKcT_ W
_ZN8nlohmann16json_abi_v3_11_26detail9dtoa_impl18compute_boundariesIdEENS2_10boundariesET_ W
_ZN8nlohmann16json_abi_v3_11_26detail9dtoa_impl6grisu2IdEEvPcRiS5_T_ W
_ZN8nlohmann16json_abi_v3_11_26detail9exception4nameERKNSt7__cxx1112basic_stringIcSt11char_traitsIcESaIcEEEi W
_ZN8nlohmann16json_abi_v3_11_26detail9exceptionD0Ev W
_ZN8nlohmann16json_abi_v3_11_26detail9exceptionD1Ev W
_ZN8nlohmann16json_abi_v3_11_26detail9exceptionD2Ev W
_ZN8nlohmann16json_abi_v3_11_26detail9from_jsonINS0_10basic_jsonINS0_11ordered_mapESt6vectorNSt7__cxx1112basic_stringIcSt11char_traitsIcESaIcEEEblmdSaNS0_14adl_serializerES5_IhSaIhEEEES5_IjSaIjEELi0EEEDTcmcmcl20from_json_array_implfp_fp0_tlNS1_12priority_tagILj3EEEEEcldtfp_3getINT0_10value_typeEEEcvv_EERKT_RSK_ W
_ZN8nlohmann16json_abi_v3_11_26detail9from_jsonINS0_10basic_jsonISt3mapSt6vectorNSt7__cxx1112basic_stringIcSt11char_traitsIcESaIcEEEblmdSaNS0_14adl_serializerES5_IhSaIhEEEEaLi0EEEvRKT_RT0_ W
_ZN8nlohmann16json_abi_v3_11_26detail9from_jsonINS0_10basic_jsonISt3mapSt6vectorNSt7__cxx1112basic_stringIcSt11char_traitsIcESaIcEEEblmdSaNS0_14adl_serializerES5_IhSaIhEEEEhLi0EEEvRKT_RT0_ W
_ZN8nlohmann16json_abi_v3_11_26detail9from_jsonINS0_10basic_jsonISt3mapSt6vectorNSt7__cxx1112basic_stringIcSt11char_traitsIcESaIcEEEblmdSaNS0_14adl_serializerES5_IhSaIhEEEES5_IaSaIaEELi0EEEDTcmcmcl20from_json_array_implfp_fp0_tlNS1_12priority_tagILj3EEEEEcldtfp_3getINT0_10value_typeEEEcvv_EERKT_RSK_ W
_ZN8nlohmann16json_abi_v3_11_26detail9from_jsonINS0_10basic_jsonISt3mapSt6vectorNSt7__cxx1112basic_stringIcSt11char_traitsIcESaIcEEEblmdSaNS0_14adl_serializerES5_IhSaIhEEEES5_IiSaIiEELi0EEEDTcmcmcl20from_json_array_implfp_fp0_tlNS1_12priority_tagILj3EEEEEcldtfp_3getINT0_10value_typeEEEcvv_EERKT_RSK_ W
_ZN8nlohmann16json_abi_v3_11_26detail9from_jsonINS0_10basic_jsonISt3mapSt6vectorNSt7__cxx1112basic_stringIcSt11char_traitsIcESaIcEEEblmdSaNS0_14adl_serializerES5_IhSaIhEEEES5_IsSaIsEELi0EEEDTcmcmcl20from_json_array_implfp_fp0_tlNS1_12priority_tagILj3EEEEEcldtfp_3getINT0_10value_typeEEEcvv_EERKT_RSK_ W
_ZN8nlohmann16json_abi_v3_11_26detail9from_jsonINS0_10basic_jsonISt3mapSt6vectorNSt7__cxx1112basic_stringIcSt11char_traitsIcESaIcEEEblmdSaNS0_14adl_serializerES5_IhSaIhEEEEtLi0EEEvRKT_RT0_ W
_ZN8nlohmann16json_abi_v3_11_26detail9iter_implIKNS0_10basic_jsonISt3mapSt6vectorNSt7__cxx1112basic_stringIcSt11char_traitsIcESaIcEEEblmdSaNS0_14adl_serializerES5_IhSaIhEEEEE9set_beginEv W
_ZN8nlohmann16json_abi_v3_11_26detail9iter_implIKNS0_10basic_jsonISt3mapSt6vectorNSt7__cxx1112basic_stringIcSt11char_traitsIcESaIcEEEblmdSaNS0_14adl_serializerES5_IhSaIhEEEEEC1EPSG_ W
_ZN8nlohmann16json_abi_v3_11_26detail9iter_implIKNS0_10basic_jsonISt3mapSt6vectorNSt7__cxx1112basic_stringIcSt11char_traitsIcESaIcEEEblmdSaNS0_14adl_serializerES5_IhSaIhEEEEEC2EPSG_ W
_ZN8nlohmann16json_abi_v3_11_26detail9iter_implINS0_10basic_jsonISt3mapSt6vectorNSt7__cxx1112basic_stringIcSt11char_traitsIcESaIcEEEblmdSaNS0_14adl_serializerES5_IhSaIhEEEEE7set_endEv W
_ZN8nlohmann16json_abi_v3_11_26detail9iter_implINS0_10basic_jsonISt3mapSt6vectorNSt7__cxx1112basic_stringIcSt11char_traitsIcESaIcEEEblmdSaNS0_14adl_serializerES5_IhSaIhEEEEE9set_beginEv W
_ZN8nlohmann16json_abi_v3_11_26detail9iter_implINS0_10basic_jsonISt3mapSt6vectorNSt7__cxx1112basic_stringIcSt11char_traitsIcESaIcEEEblmdSaNS0_14adl_serializerES5_IhSaIhEEEEEC1EPSF_ W
_ZN8nlohmann16json_abi_v3_11_26detail9iter_implINS0_10basic_jsonISt3mapSt6vectorNSt7__cxx1112basic_stringIcSt11char_traitsIcESaIcEEEblmdSaNS0_14adl_serializerES5_IhSaIhEEEEEC2EPSF_ W
_ZNK6tiling10BasicStage17GetBranchCompleteEv T
_ZNK6tiling10BasicStage17GetBranchInactiveEv T
_ZNK6tiling10BasicStage17GetInputImageSizeEv T
_ZNK6tiling10BasicStage18GetOutputImageSizeEv T
_ZNK6tiling10InputStage16GetInputIntervalEv T
_ZNK6tiling10InputStage17GetInputImageSizeEv T
_ZNK6tiling10SplitStage17GetBranchCompleteEv T
_ZNK6tiling10SplitStage17GetBranchInactiveEv T
_ZNK6tiling10SplitStage17GetInputImageSizeEv T
_ZNK6tiling10SplitStage18GetOutputImageSizeEv T
_ZNK6tiling11OutputStage17GetBranchCompleteEv T
_ZNK6tiling11OutputStage17GetOutputIntervalEv T
_ZNK6tiling12RescaleStage18GetOutputImageSizeEv T
_ZNK6tiling15TilingException4whatEv W
_ZNK6tiling5Stage11GetPipelineEv T
_ZNK6tiling5Stage12MergeRegionsEPvS1_S1_ T
_ZNK6tiling8Pipeline9GetConfigEv T
_ZNK6tiling9CropStage17GetBranchInactiveEv T
_ZNK6tiling9CropStage18GetOutputImageSizeEv T
_ZNK7libpisp3Pwl3MapESt8functionIFvddEE T
_ZNK7libpisp3Pwl4EvalEdPib T
_ZNK7libpisp3Pwl5DebugEP8_IO_FILE T
_ZNK7libpisp3Pwl5EmptyEv T
_ZNK7libpisp3Pwl5RangeEv T
_ZNK7libpisp3Pwl6DomainEv T
_ZNK7libpisp3Pwl6InvertERKNS0_5PointERS1_Rid T
_ZNK7libpisp3Pwl7ComposeERKS0_d T
_ZNK7libpisp3Pwl8findSpanEdi T
_ZNK7libpisp7BackEnd11GetDemosaicER23pisp_be_demosaic_config T
_ZNK7libpisp7BackEnd13getOutputSizeEiPtS1_RK24pisp_image_format_config T
_ZNK7libpisp7BackEnd15GetMaxDownscaleEv T
_ZNK7libpisp7BackEnd15GetOutputFormatEjR28pisp_be_output_format_config T
_ZNK7libpisp7BackEnd18GetTdnOutputFormatER24pisp_image_format_config T
_ZNK7libpisp7BackEnd20GetStitchInputFormatER24pisp_image_format_config T
_ZNK7libpisp7BackEnd21GetStitchOutputFormatER24pisp_image_format_config T
_ZNK7libpisp7BackEnd24ComputeOutputImageFormatEjR24pisp_image_format_configRKS1_ T
_ZNK7libpisp7BackEnd6GetBlcER15pisp_bla_config T
_ZNK7libpisp7BackEnd6GetTdnER18pisp_be_tdn_config T
_ZNK7libpisp7BackEnd9GetGlobalER21pisp_be_global_config T
_ZNK7libpisp7helpers10V4l2Device10findBufferEj T
_ZNK7libpisp7helpers11MediaDevice10DeviceInfoERKNSt7__cxx1112basic_stringIcSt11char_traitsIcESaIcEEE T
_ZNK7libpisp7helpers11MediaDevice13OpenV4l2NodesERKNSt7__cxx1112basic_stringIcSt11char_traitsIcESaIcEEE T
_ZNK7libpisp7helpers11MediaDevice4ListB5cxx11Ev T
_ZNK7libpisp8FrontEnd9GetGlobalER21pisp_fe_global_config T
_ZNK8nlohmann16json_abi_v3_11_210basic_jsonISt3mapSt6vectorNSt7__cxx1112basic_stringIcSt11char_traitsIcESaIcEEEblmdSaNS0_14adl_serializerES3_IhSaIhEEEixIKcEERKSD_PT_ W
_ZNK8nlohmann16json_abi_v3_11_26detail5lexerINS0_10basic_jsonINS0_11ordered_mapESt6vectorNSt7__cxx1112basic_stringIcSt11char_traitsIcESaIcEEEblmdSaNS0_14adl_serializerES5_IhSaIhEEEENS1_22iterator_input_adapterIN9__gnu_cxx17__normal_iteratorIPKcSB_EEEEE16get_token_stringEv W
_ZNK8nlohmann16json_abi_v3_11_26detail5lexerINS0_10basic_jsonISt3mapSt6vectorNSt7__cxx1112basic_stringIcSt11char_traitsIcESaIcEEEblmdSaNS0_14adl_serializerES5_IhSaIhEEEENS1_20input_stream_adapterEE16get_token_stringEv W
_ZNK8nlohmann16json_abi_v3_11_26detail9exception4whatEv W
_ZNK8nlohmann16json_abi_v3_11_26detail9iter_implIKNS0_10basic_jsonISt3mapSt6vectorNSt7__cxx1112basic_stringIcSt11char_traitsIcESaIcEEEblmdSaNS0_14adl_serializerES5_IhSaIhEEEEEdeEv W
_ZNK8nlohmann16json_abi_v3_11_26detail9iter_implIKNS0_10basic_jsonISt3mapSt6vectorNSt7__cxx1112basic_stringIcSt11char_traitsIcESaIcEEEblmdSaNS0_14adl_serializerES5_IhSaIhEEEEEeqISH_LDnEEEbRKT_ W
_ZNK8nlohmann16json_abi_v3_11_26detail9iter_implINS0_10basic_jsonISt3mapSt6vectorNSt7__cxx1112basic_stringIcSt11char_traitsIcESaIcEEEblmdSaNS0_14adl_serializerES5_IhSaIhEEEEEdeEv W
_ZNK8nlohmann16json_abi_v3_11_26detail9iter_implINS0_10basic_jsonISt3mapSt6vectorNSt7__cxx1112basic_stringIcSt11char_traitsIcESaIcEEEblmdSaNS0_14adl_serializerES5_IhSaIhEEEEEeqISG_LDnEEEbRKT_ W
_ZNKSt19bad_optional_access4whatEv W
_ZNKSt5ctypeIcE8do_widenEc W
_ZNSt10filesystem7__cxx114pathD1Ev W
_ZNSt10filesystem7__cxx114pathD2Ev W
_ZNSt10_HashtableINSt7__cxx1112basic_stringIcSt11char_traitsIcESaIcEEES5_SaIS5_ENSt8__detail9_IdentityESt8equal_toIS5_ESt4hashIS5_ENS7_18_Mod_range_hashingENS7_20_Default_ranged_hashENS7_20_Prime_rehash_policyENS7_17_Hashtable_traitsILb1ELb1ELb1EEEE12_Scoped_nodeD1Ev W
_ZNSt10_HashtableINSt7__cxx1112basic_stringIcSt11char_traitsIcESaIcEEES5_SaIS5_ENSt8__detail9_IdentityESt8equal_toIS5_ESt4hashIS5_ENS7_18_Mod_range_hashingENS7_20_Default_ranged_hashENS7_20_Prime_rehash_policyENS7_17_Hashtable_traitsILb1ELb1ELb1EEEE12_Scoped_nodeD2Ev W
_ZNSt10_HashtableINSt7__cxx1112basic_stringIcSt11char_traitsIcESaIcEEES5_SaIS5_ENSt8__detail9_IdentityESt8equal_toIS5_ESt4hashIS5_ENS7_18_Mod_range_hashingENS7_20_Default_ranged_hashENS7_20_Prime_rehash_policyENS7_17_Hashtable_traitsILb1ELb1ELb1EEEE21_M_insert_unique_nodeEmmPNS7_10_Hash_nodeIS5_Lb1EEEm W
_ZNSt10_HashtableINSt7__cxx1112basic_stringIcSt11char_traitsIcESaIcEEES5_SaIS5_ENSt8__detail9_IdentityESt8equal_toIS5_ESt4hashIS5_ENS7_18_Mod_range_hashingENS7_20_Default_ranged_hashENS7_20_Prime_rehash_policyENS7_17_Hashtable_traitsILb1ELb1ELb1EEEE9_M_rehashEmRKm W
_ZNSt10unique_ptrI15MediaEnumeratorSt14default_deleteIS0_EED1Ev W
_ZNSt10unique_ptrI15MediaEnumeratorSt14default_deleteIS0_EED2Ev W
_ZNSt13_Bvector_baseISaIbEE13_M_deallocateEv W
_ZNSt15_Sp_counted_ptrIDnLN9__gnu_cxx12_Lock_policyE2EE10_M_disposeEv W
_ZNSt16_Sp_counted_baseILN9__gnu_cxx12_Lock_policyE2EE10_M_destroyEv W
_ZNSt16_Sp_counted_baseILN9__gnu_cxx12_Lock_policyE2EE10_M_releaseEv W
_ZNSt16_Sp_counted_baseILN9__gnu_cxx12_Lock_policyE2EE24_M_release_last_use_coldEv W
_ZNSt19bad_optional_accessD0Ev W
_ZNSt19bad_optional_accessD1Ev W
_ZNSt19bad_optional_accessD2Ev W
_ZNSt23_Sp_counted_ptr_inplaceIN8nlohmann16json_abi_v3_11_26detail21output_string_adapterIcNSt7__cxx1112basic_stringIcSt11char_traitsIcESaIcEEEEESaIvELN9__gnu_cxx12_Lock_policyE2EE10_M_destroyEv W
_ZNSt23_Sp_counted_ptr_inplaceIN8nlohmann16json_abi_v3_11_26detail21output_string_adapterIcNSt7__cxx1112basic_stringIcSt11char_traitsIcESaIcEEEEESaIvELN9__gnu_cxx12_Lock_policyE2EE10_M_disposeEv W
_ZNSt23_Sp_counted_ptr_inplaceIN8nlohmann16json_abi_v3_11_26detail21output_string_adapterIcNSt7__cxx1112basic_stringIcSt11char_traitsIcESaIcEEEEESaIvELN9__gnu_cxx12_Lock_policyE2EE14_M_get_deleterERKSt9type_info W
_ZNSt23_Sp_counted_ptr_inplaceIN8nlohmann16json_abi_v3_11_26detail21output_string_adapterIcNSt7__cxx1112basic_stringIcSt11char_traitsIcESaIcEEEEESaIvELN9__gnu_cxx12_Lock_policyE2EED0Ev W
_ZNSt23_Sp_counted_ptr_inplaceIN8nlohmann16json_abi_v3_11_26detail21output_string_adapterIcNSt7__cxx1112basic_stringIcSt11char_traitsIcESaIcEEEEESaIvELN9__gnu_cxx12_Lock_policyE2EED1Ev W
_ZNSt23_Sp_counted_ptr_inplaceIN8nlohmann16json_abi_v3_11_26detail21output_string_adapterIcNSt7__cxx1112basic_stringIcSt11char_traitsIcESaIcEEEEESaIvELN9__gnu_cxx12_Lock_policyE2EED2Ev W
_ZNSt3mapImjSt4lessImESaISt4pairIKmjEEEC1ESt16initializer_listIS4_ERKS1_RKS5_ W
_ZNSt3mapImjSt4lessImESaISt4pairIKmjEEEC2ESt16initializer_listIS4_ERKS1_RKS5_ W
_ZNSt3mapImjSt4lessImESaISt4pairIKmjEEED1Ev W
_ZNSt3mapImjSt4lessImESaISt4pairIKmjEEED2Ev W
_ZNSt3mapINSt7__cxx1112basic_stringIcSt11char_traitsIcESaIcEEEjSt4lessIS5_ESaISt4pairIKS5_jEEED1Ev W
_ZNSt3mapINSt7__cxx1112basic_stringIcSt11char_traitsIcESaIcEEEjSt4lessIS5_ESaISt4pairIKS5_jEEED2Ev W
_ZNSt5dequeIjSaIjEE16_M_push_back_auxIJRKjEEEvDpOT_ W
_ZNSt6vectorI10DeviceNodeSaIS0_EE17_M_realloc_insertIJS0_EEEvN9__gnu_cxx17__normal_iteratorIPS0_S2_EEDpOT_ W
_ZNSt6vectorI10DeviceNodeSaIS0_EED1Ev W
_ZNSt6vectorI10DeviceNodeSaIS0_EED2Ev W
_ZNSt6vectorI11MediaDevMapSaIS0_EE17_M_realloc_insertIJRKNSt7__cxx1112basic_stringIcSt11char_traitsIcESaIcEEES_I10DeviceNodeSaISC_EEEEEvN9__gnu_cxx17__normal_iteratorIPS0_S2_EEDpOT_ W
_ZNSt6vectorI11MediaDevMapSaIS0_EED1Ev W
_ZNSt6vectorI11MediaDevMapSaIS0_EED2Ev W
_ZNSt6vectorIaSaIaEE17_M_realloc_insertIJaEEEvN9__gnu_cxx17__normal_iteratorIPaS1_EEDpOT_ W
_ZNSt6vectorIaSaIaEED1Ev W
_ZNSt6vectorIaSaIaEED2Ev W
_ZNSt6vectorIbSaIbEE9push_backEb W
_ZNSt6vectorIcSaIcEE17_M_realloc_insertIJcEEEvN9__gnu_cxx17__normal_iteratorIPcS1_EEDpOT_ W
_ZNSt6vectorIiSaIiEE17_M_realloc_insertIJiEEEvN9__gnu_cxx17__normal_iteratorIPiS1_EEDpOT_ W
_ZNSt6vectorIiSaIiEED1Ev W
_ZNSt6vectorIiSaIiEED2Ev W
_ZNSt6vectorIjSaIjEE17_M_realloc_insertIJjEEEvN9__gnu_cxx17__normal_iteratorIPjS1_EEDpOT_ W
_ZNSt6vectorIjSaIjEED1Ev W
_ZNSt6vectorIjSaIjEED2Ev W
_ZNSt6vectorIN7libpisp11PiSPVariantESaIS1_EED1Ev W
_ZNSt6vectorIN7libpisp11PiSPVariantESaIS1_EED2Ev W
_ZNSt6vectorIN7libpisp3Pwl5PointESaIS2_EE17_M_realloc_insertIJS2_EEEvN9__gnu_cxx17__normal_iteratorIPS2_S4_EEDpOT_ W
_ZNSt6vectorIN7libpisp3Pwl5PointESaIS2_EED1Ev W
_ZNSt6vectorIN7libpisp3Pwl5PointESaIS2_EED2Ev W
_ZNSt6vectorIN7libpisp7helpers10V4l2Device6BufferESaIS3_EE17_M_realloc_insertIJR11v4l2_bufferEEEvN9__gnu_cxx17__normal_iteratorIPS3_S5_EEDpOT_ W
_ZNSt6vectorIN8nlohmann16json_abi_v3_11_210basic_jsonINS1_11ordered_mapES_NSt7__cxx1112basic_stringIcSt11char_traitsIcESaIcEEEblmdSaNS1_14adl_serializerES_IhSaIhEEEESaISD_EE17_M_realloc_insertIJNS1_6detail7value_tEEEEvN9__gnu_cxx17__normal_iteratorIPSD_SF_EEDpOT_ W
_ZNSt6vectorIN8nlohmann16json_abi_v3_11_210basic_jsonINS1_11ordered_mapES_NSt7__cxx1112basic_stringIcSt11char_traitsIcESaIcEEEblmdSaNS1_14adl_serializerES_IhSaIhEEEESaISD_EE17_M_realloc_insertIJRdEEEvN9__gnu_cxx17__normal_iteratorIPSD_SF_EEDpOT_ W
_ZNSt6vectorIN8nlohmann16json_abi_v3_11_210basic_jsonINS1_11ordered_mapES_NSt7__cxx1112basic_stringIcSt11char_traitsIcESaIcEEEblmdSaNS1_14adl_serializerES_IhSaIhEEEESaISD_EE17_M_realloc_insertIJRKSD_EEEvN9__gnu_cxx17__normal_iteratorIPSD_SF_EEDpOT_ W
_ZNSt6vectorIN8nlohmann16json_abi_v3_11_210basic_jsonINS1_11ordered_mapES_NSt7__cxx1112basic_stringIcSt11char_traitsIcESaIcEEEblmdSaNS1_14adl_serializerES_IhSaIhEEEESaISD_EE17_M_realloc_insertIJRlEEEvN9__gnu_cxx17__normal_iteratorIPSD_SF_EEDpOT_ W
_ZNSt6vectorIN8nlohmann16json_abi_v3_11_210basic_jsonINS1_11ordered_mapES_NSt7__cxx1112basic_stringIcSt11char_traitsIcESaIcEEEblmdSaNS1_14adl_serializerES_IhSaIhEEEESaISD_EE17_M_realloc_insertIJRmEEEvN9__gnu_cxx17__normal_iteratorIPSD_SF_EEDpOT_ W
_ZNSt6vectorIN8nlohmann16json_abi_v3_11_210basic_jsonINS1_11ordered_mapES_NSt7__cxx1112basic_stringIcSt11char_traitsIcESaIcEEEblmdSaNS1_14adl_serializerES_IhSaIhEEEESaISD_EE17_M_realloc_insertIJRS9_EEEvN9__gnu_cxx17__normal_iteratorIPSD_SF_EEDpOT_ W
_ZNSt6vectorIN8nlohmann16json_abi_v3_11_210basic_jsonINS1_11ordered_mapES_NSt7__cxx1112basic_stringIcSt11char_traitsIcESaIcEEEblmdSaNS1_14adl_serializerES_IhSaIhEEEESaISD_EE7reserveEm W
_ZNSt6vectorIN8nlohmann16json_abi_v3_11_210basic_jsonINS1_11ordered_mapES_NSt7__cxx1112basic_stringIcSt11char_traitsIcESaIcEEEblmdSaNS1_14adl_serializerES_IhSaIhEEEESaISD_EED1Ev W
_ZNSt6vectorIN8nlohmann16json_abi_v3_11_210basic_jsonINS1_11ordered_mapES_NSt7__cxx1112basic_stringIcSt11char_traitsIcESaIcEEEblmdSaNS1_14adl_serializerES_IhSaIhEEEESaISD_EED2Ev W
_ZNSt6vectorIN8nlohmann16json_abi_v3_11_210basic_jsonISt3mapS_NSt7__cxx1112basic_stringIcSt11char_traitsIcESaIcEEEblmdSaNS1_14adl_serializerES_IhSaIhEEEESaISD_EE17_M_realloc_insertIJNS1_6detail7value_tEEEEvN9__gnu_cxx17__normal_iteratorIPSD_SF_EEDpOT_ W
_ZNSt6vectorIN8nlohmann16json_abi_v3_11_210basic_jsonISt3mapS_NSt7__cxx1112basic_stringIcSt11char_traitsIcESaIcEEEblmdSaNS1_14adl_serializerES_IhSaIhEEEESaISD_EE17_M_realloc_insertIJRdEEEvN9__gnu_cxx17__normal_iteratorIPSD_SF_EEDpOT_ W
_ZNSt6vectorIN8nlohmann16json_abi_v3_11_210basic_jsonISt3mapS_NSt7__cxx1112basic_stringIcSt11char_traitsIcESaIcEEEblmdSaNS1_14adl_serializerES_IhSaIhEEEESaISD_EE17_M_realloc_insertIJRlEEEvN9__gnu_cxx17__normal_iteratorIPSD_SF_EEDpOT_ W
_ZNSt6vectorIN8nlohmann16json_abi_v3_11_210basic_jsonISt3mapS_NSt7__cxx1112basic_stringIcSt11char_traitsIcESaIcEEEblmdSaNS1_14adl_serializerES_IhSaIhEEEESaISD_EE17_M_realloc_insertIJRmEEEvN9__gnu_cxx17__normal_iteratorIPSD_SF_EEDpOT_ W
_ZNSt6vectorIN8nlohmann16json_abi_v3_11_210basic_jsonISt3mapS_NSt7__cxx1112basic_stringIcSt11char_traitsIcESaIcEEEblmdSaNS1_14adl_serializerES_IhSaIhEEEESaISD_EE17_M_realloc_insertIJRS9_EEEvN9__gnu_cxx17__normal_iteratorIPSD_SF_EEDpOT_ W
_ZNSt6vectorIN8nlohmann16json_abi_v3_11_210basic_jsonISt3mapS_NSt7__cxx1112basic_stringIcSt11char_traitsIcESaIcEEEblmdSaNS1_14adl_serializerES_IhSaIhEEEESaISD_EE7reserveEm W
_ZNSt6vectorIN8nlohmann16json_abi_v3_11_210basic_jsonISt3mapS_NSt7__cxx1112basic_stringIcSt11char_traitsIcESaIcEEEblmdSaNS1_14adl_serializerES_IhSaIhEEEESaISD_EED1Ev W
_ZNSt6vectorIN8nlohmann16json_abi_v3_11_210basic_jsonISt3mapS_NSt7__cxx1112basic_stringIcSt11char_traitsIcESaIcEEEblmdSaNS1_14adl_serializerES_IhSaIhEEEESaISD_EED2Ev W
_ZNSt6vectorIPN6tiling5StageESaIS2_EE17_M_realloc_insertIJRKS2_EEEvN9__gnu_cxx17__normal_iteratorIPS2_S4_EEDpOT_ W
_ZNSt6vectorIPN8nlohmann16json_abi_v3_11_210basic_jsonINS1_11ordered_mapES_NSt7__cxx1112basic_stringIcSt11char_traitsIcESaIcEEEblmdSaNS1_14adl_serializerES_IhSaIhEEEESaISE_EE17_M_realloc_insertIJRKSE_EEEvN9__gnu_cxx17__normal_iteratorIPSE_SG_EEDpOT_ W
_ZNSt6vectorIPN8nlohmann16json_abi_v3_11_210basic_jsonINS1_11ordered_mapES_NSt7__cxx1112basic_stringIcSt11char_traitsIcESaIcEEEblmdSaNS1_14adl_serializerES_IhSaIhEEEESaISE_EE17_M_realloc_insertIJSE_EEEvN9__gnu_cxx17__normal_iteratorIPSE_SG_EEDpOT_ W
_ZNSt6vectorIPN8nlohmann16json_abi_v3_11_210basic_jsonINS1_11ordered_mapES_NSt7__cxx1112basic_stringIcSt11char_traitsIcESaIcEEEblmdSaNS1_14adl_serializerES_IhSaIhEEEESaISE_EED1Ev W
_ZNSt6vectorIPN8nlohmann16json_abi_v3_11_210basic_jsonINS1_11ordered_mapES_NSt7__cxx1112basic_stringIcSt11char_traitsIcESaIcEEEblmdSaNS1_14adl_serializerES_IhSaIhEEEESaISE_EED2Ev W
_ZNSt6vectorIPN8nlohmann16json_abi_v3_11_210basic_jsonISt3mapS_NSt7__cxx1112basic_stringIcSt11char_traitsIcESaIcEEEblmdSaNS1_14adl_serializerES_IhSaIhEEEESaISE_EE17_M_realloc_insertIJRKSE_EEEvN9__gnu_cxx17__normal_iteratorIPSE_SG_EEDpOT_ W
_ZNSt6vectorIPN8nlohmann16json_abi_v3_11_210basic_jsonISt3mapS_NSt7__cxx1112basic_stringIcSt11char_traitsIcESaIcEEEblmdSaNS1_14adl_serializerES_IhSaIhEEEESaISE_EE17_M_realloc_insertIJSE_EEEvN9__gnu_cxx17__normal_iteratorIPSE_SG_EEDpOT_ W
_ZNSt6vectorIPN8nlohmann16json_abi_v3_11_210basic_jsonISt3mapS_NSt7__cxx1112basic_stringIcSt11char_traitsIcESaIcEEEblmdSaNS1_14adl_serializerES_IhSaIhEEEESaISE_EED1Ev W
_ZNSt6vectorIPN8nlohmann16json_abi_v3_11_210basic_jsonISt3mapS_NSt7__cxx1112basic_stringIcSt11char_traitsIcESaIcEEEblmdSaNS1_14adl_serializerES_IhSaIhEEEESaISE_EED2Ev W
_ZNSt6vectorIsSaIsEE17_M_realloc_insertIJsEEEvN9__gnu_cxx17__normal_iteratorIPsS1_EEDpOT_ W
_ZNSt6vectorIsSaIsEED1Ev W
_ZNSt6vectorIsSaIsEED2Ev W
_ZNSt6vectorISt4pairIKNSt7__cxx1112basic_stringIcSt11char_traitsIcESaIcEEEN8nlohmann16json_abi_v3_11_210basic_jsonINS9_11ordered_mapES_S6_blmdSaNS9_14adl_serializerES_IhSaIhEEEEESaISG_EE17_M_default_appendEm W
_ZNSt6vectorISt4pairIKNSt7__cxx1112basic_stringIcSt11char_traitsIcESaIcEEEN8nlohmann16json_abi_v3_11_210basic_jsonINS9_11ordered_mapES_S6_blmdSaNS9_14adl_serializerES_IhSaIhEEEEESaISG_EE17_M_realloc_insertIJRS7_SF_EEEvN9__gnu_cxx17__normal_iteratorIPSG_SI_EEDpOT_ W
_ZNSt6vectorItSaItEE17_M_realloc_insertIJtEEEvN9__gnu_cxx17__normal_iteratorIPtS1_EEDpOT_ W
_ZNSt6vectorItSaItEED1Ev W
_ZNSt6vectorItSaItEED2Ev W
_ZNSt7__cxx1112basic_stringIcSt11char_traitsIcESaIcEEC1IS3_EEPKcRKS3_ W
_ZNSt7__cxx1112basic_stringIcSt11char_traitsIcESaIcEEC2IS3_EEPKcRKS3_ W
_ZNSt7__cxx119to_stringEi W
_ZNSt7__cxx119to_stringEj W
_ZNSt7__cxx119to_stringEm W
_ZNSt8_Rb_treeINSt7__cxx1112basic_stringIcSt11char_traitsIcESaIcEEESt4pairIKS5_10FormatInfoESt10_Select1stIS9_ESt4lessIS5_ESaIS9_EE24_M_get_insert_unique_posERS7_ W
_ZNSt8_Rb_treeINSt7__cxx1112basic_stringIcSt11char_traitsIcESaIcEEESt4pairIKS5_10FormatInfoESt10_Select1stIS9_ESt4lessIS5_ESaIS9_EE29_M_get_insert_hint_unique_posESt23_Rb_tree_const_iteratorIS9_ERS7_ W
_ZNSt8_Rb_treeINSt7__cxx1112basic_stringIcSt11char_traitsIcESaIcEEESt4pairIKS5_jESt10_Select1stIS8_ESt4lessIS5_ESaIS8_EE24_M_get_insert_unique_posERS7_ W
_ZNSt8_Rb_treeINSt7__cxx1112basic_stringIcSt11char_traitsIcESaIcEEESt4pairIKS5_jESt10_Select1stIS8_ESt4lessIS5_ESaIS8_EE29_M_get_insert_hint_unique_posESt23_Rb_tree_const_iteratorIS8_ERS7_ W
_ZNSt8_Rb_treeINSt7__cxx1112basic_stringIcSt11char_traitsIcESaIcEEESt4pairIKS5_N7libpisp7helpers10V4l2Device6BufferEESt10_Select1stISC_ESt4lessIS5_ESaISC_EE24_M_get_insert_unique_posERS7_ W
_ZNSt8_Rb_treeINSt7__cxx1112basic_stringIcSt11char_traitsIcESaIcEEESt4pairIKS5_N8nlohmann16json_abi_v3_11_210basic_jsonISt3mapSt6vectorS5_blmdSaNS9_14adl_serializerESC_IhSaIhEEEEESt10_Select1stISH_ESt4lessIvESaISH_EE24_M_get_insert_unique_posERS7_ W
_ZNSt8_Rb_treeINSt7__cxx1112basic_stringIcSt11char_traitsIcESaIcEEESt4pairIKS5_N8nlohmann16json_abi_v3_11_210basic_jsonISt3mapSt6vectorS5_blmdSaNS9_14adl_serializerESC_IhSaIhEEEEESt10_Select1stISH_ESt4lessIvESaISH_EE29_M_get_insert_hint_unique_posESt23_Rb_tree_const_iteratorISH_ERS7_ W
_ZSt16__do_uninit_copyIPKSt4pairIKNSt7__cxx1112basic_stringIcSt11char_traitsIcESaIcEEEN8nlohmann16json_abi_v3_11_210basic_jsonINS9_11ordered_mapESt6vectorS6_blmdSaNS9_14adl_serializerESC_IhSaIhEEEEEPSH_ET0_T_SM_SL_ W
_ZSt27__throw_bad_optional_accessv W
_ZSt8_DestroyIPN8nlohmann16json_abi_v3_11_210basic_jsonISt3mapSt6vectorNSt7__cxx1112basic_stringIcSt11char_traitsIcESaIcEEEblmdSaNS1_14adl_serializerES4_IhSaIhEEEEEvT_SG_ W
_ZSteqIcSt11char_traitsIcESaIcEEbRKNSt7__cxx1112basic_stringIT_T0_T1_EESA_ W
_ZTIN6tiling10BasicStageE V
_ZTIN6tiling10InputStageE V
_ZTIN6tiling10SplitStageE V
_ZTIN6tiling11OutputStageE V
_ZTIN6tiling12ContextStageE V
_ZTIN6tiling12RescaleStageE V
_ZTIN6tiling15TilingExceptionE V
_ZTIN6tiling5StageE V
_ZTIN6tiling9CropStageE V
_ZTIN8nlohmann16json_abi_v3_11_26detail10type_errorE V
_ZTIN8nlohmann16json_abi_v3_11_26detail11parse_errorE V
_ZTIN8nlohmann16json_abi_v3_11_26detail12out_of_rangeE V
_ZTIN8nlohmann16json_abi_v3_11_26detail16invalid_iteratorE V
_ZTIN8nlohmann16json_abi_v3_11_26detail21output_string_adapterIcNSt7__cxx1112basic_stringIcSt11char_traitsIcESaIcEEEEE V
_ZTIN8nlohmann16json_abi_v3_11_26detail23output_adapter_protocolIcEE V
_ZTIN8nlohmann16json_abi_v3_11_26detail9exceptionE V
_ZTISt11_Mutex_baseILN9__gnu_cxx12_Lock_policyE2EE V
_ZTISt16_Sp_counted_baseILN9__gnu_cxx12_Lock_policyE2EE V
_ZTISt19bad_optional_access V
_ZTISt23_Sp_counted_ptr_inplaceIN8nlohmann16json_abi_v3_11_26detail21output_string_adapterIcNSt7__cxx1112basic_stringIcSt11char_traitsIcESaIcEEEEESaIvELN9__gnu_cxx12_Lock_policyE2EE V
_ZTSN6tiling10BasicStageE V
_ZTSN6tiling10InputStageE V
_ZTSN6tiling10SplitStageE V
_ZTSN6tiling11OutputStageE V
_ZTSN6tiling12ContextStageE V
_ZTSN6tiling12RescaleStageE V
_ZTSN6tiling15TilingExceptionE V
_ZTSN6tiling5StageE V
_ZTSN6tiling9CropStageE V
_ZTSN8nlohmann16json_abi_v3_11_26detail10type_errorE V
_ZTSN8nlohmann16json_abi_v3_11_26detail11parse_errorE V
_ZTSN8nlohmann16json_abi_v3_11_26detail12out_of_rangeE V
_ZTSN8nlohmann16json_abi_v3_11_26detail16invalid_iteratorE V
_ZTSN8nlohmann16json_abi_v3_11_26detail21output_string_adapterIcNSt7__cxx1112basic_stringIcSt11char_traitsIcESaIcEEEEE V
_ZTSN8nlohmann16json_abi_v3_11_26detail23output_adapter_protocolIcEE V
_ZTSN8nlohmann16json_abi_v3_11_26detail9exceptionE V
_ZTSSt11_Mutex_baseILN9__gnu_cxx12_Lock_policyE2EE V
_ZTSSt16_Sp_counted_baseILN9__gnu_cxx12_Lock_policyE2EE V
_ZTSSt19bad_optional_access V
_ZTSSt19_Sp_make_shared_tag V
_ZTSSt23_Sp_counted_ptr_inplaceIN8nlohmann16json_abi_v3_11_26detail21output_string_adapterIcNSt7__cxx1112basic_stringIcSt11char_traitsIcESaIcEEEEESaIvELN9__gnu_cxx12_Lock_policyE2EE V
_ZTVN6tiling10BasicStageE V
_ZTVN6tiling10InputStageE V
_ZTVN6tiling10SplitStageE V
_ZTVN6tiling11OutputStageE V
_ZTVN6tiling12ContextStageE V
_ZTVN6tiling12RescaleStageE V
_ZTVN6tiling15TilingExceptionE V
_ZTVN6tiling5StageE V
_ZTVN6tiling9CropStageE V
_ZTVN8nlohmann16json_abi_v3_11_26detail10type_errorE V
_ZTVN8nlohmann16json_abi_v3_11_26detail11parse_errorE V
_ZTVN8nlohmann16json_abi_v3_11_26detail12out_of_rangeE V
_ZTVN8nlohmann16json_abi_v3_11_26detail16invalid_iteratorE V
_ZTVN8nlohmann16json_abi_v3_11_26detail21output_string_adapterIcNSt7__cxx1112basic_stringIcSt11char_traitsIcESaIcEEEEE V
_ZTVN8nlohmann16json_abi_v3_11_26detail9exceptionE V
_ZTVSt19bad_optional_access V
_ZTVSt23_Sp_counted_ptr_inplaceIN8nlohmann16json_abi_v3_11_26detail21output_string_adapterIcNSt7__cxx1112basic_stringIcSt11char_traitsIcESaIcEEEEESaIvELN9__gnu_cxx12_Lock_policyE2EE V
_ZZN15MediaEnumerator3GetEvE4mdev u
_ZZN8nlohmann16json_abi_v3_11_26detail10serializerINS0_10basic_jsonINS0_11ordered_mapESt6vectorNSt7__cxx1112basic_stringIcSt11char_traitsIcESaIcEEEblmdSaNS0_14adl_serializerES5_IhSaIhEEEEE12dump_integerIhLi0EEEvT_E12digits_to_99 u
_ZZN8nlohmann16json_abi_v3_11_26detail10serializerINS0_10basic_jsonINS0_11ordered_mapESt6vectorNSt7__cxx1112basic_stringIcSt11char_traitsIcESaIcEEEblmdSaNS0_14adl_serializerES5_IhSaIhEEEEE12dump_integerIlLi0EEEvT_E12digits_to_99 u
_ZZN8nlohmann16json_abi_v3_11_26detail10serializerINS0_10basic_jsonINS0_11ordered_mapESt6vectorNSt7__cxx1112basic_stringIcSt11char_traitsIcESaIcEEEblmdSaNS0_14adl_serializerES5_IhSaIhEEEEE12dump_integerImLi0EEEvT_E12digits_to_99 u
_ZZN8nlohmann16json_abi_v3_11_26detail10serializerINS0_10basic_jsonINS0_11ordered_mapESt6vectorNSt7__cxx1112basic_stringIcSt11char_traitsIcESaIcEEEblmdSaNS0_14adl_serializerES5_IhSaIhEEEEE6decodeERhRjhE5utf8d u
_ZZN8nlohmann16json_abi_v3_11_26detail9dtoa_impl36get_cached_power_for_binary_exponentEiE13kCachedPowers u
_ZZNSt19_Sp_make_shared_tag5_S_tiEvE5__tag u
